; ModuleID = '36/1581.c'
source_filename = "36/1581.c"
target datalayout = "e-m:e-p270:32:32-p271:32:32-p272:64:64-i64:64-f80:128-n8:16:32:64-S128"
target triple = "x86_64-pc-linux-gnu"

@.str = private unnamed_addr constant [5 x i8] c"%s%s\00", align 1
@.str.1 = private unnamed_addr constant [4 x i8] c"YES\00", align 1
@.str.2 = private unnamed_addr constant [3 x i8] c"NO\00", align 1

; Function Attrs: noinline nounwind uwtable
define dso_local i32 @main() #0 {
  %1 = alloca i32, align 4
  %2 = alloca [10000 x i8], align 16
  %3 = alloca [10000 x i8], align 16
  %4 = alloca i8, align 1
  %5 = alloca i32, align 4
  %6 = alloca i32, align 4
  %7 = alloca i32, align 4
  %8 = alloca i32, align 4
  store i32 0, i32* %1, align 4
  %9 = getelementptr inbounds [10000 x i8], [10000 x i8]* %2, i64 0, i64 0
  %10 = getelementptr inbounds [10000 x i8], [10000 x i8]* %3, i64 0, i64 0
  %11 = call i32 (i8*, ...) @__isoc99_scanf(i8* getelementptr inbounds ([5 x i8], [5 x i8]* @.str, i64 0, i64 0), i8* %9, i8* %10)
  %12 = getelementptr inbounds [10000 x i8], [10000 x i8]* %2, i64 0, i64 0
  %13 = call i64 @strlen(i8* %12) #3
  %14 = sub i64 %13, 1
  %15 = trunc i64 %14 to i32
  store i32 %15, i32* %5, align 4
  br label %16

16:                                               ; preds = %60, %0
  %17 = load i32, i32* %5, align 4
  %18 = icmp sge i32 %17, 0
  br i1 %18, label %19, label %63

19:                                               ; preds = %16
  store i32 0, i32* %6, align 4
  br label %20

20:                                               ; preds = %56, %19
  %21 = load i32, i32* %6, align 4
  %22 = load i32, i32* %5, align 4
  %23 = icmp slt i32 %21, %22
  br i1 %23, label %24, label %59

24:                                               ; preds = %20
  %25 = load i32, i32* %6, align 4
  %26 = sext i32 %25 to i64
  %27 = getelementptr inbounds [10000 x i8], [10000 x i8]* %2, i64 0, i64 %26
  %28 = load i8, i8* %27, align 1
  %29 = sext i8 %28 to i32
  %30 = load i32, i32* %6, align 4
  %31 = add nsw i32 %30, 1
  %32 = sext i32 %31 to i64
  %33 = getelementptr inbounds [10000 x i8], [10000 x i8]* %2, i64 0, i64 %32
  %34 = load i8, i8* %33, align 1
  %35 = sext i8 %34 to i32
  %36 = icmp sgt i32 %29, %35
  br i1 %36, label %37, label %55

37:                                               ; preds = %24
  %38 = load i32, i32* %6, align 4
  %39 = sext i32 %38 to i64
  %40 = getelementptr inbounds [10000 x i8], [10000 x i8]* %2, i64 0, i64 %39
  %41 = load i8, i8* %40, align 1
  store i8 %41, i8* %4, align 1
  %42 = load i32, i32* %6, align 4
  %43 = add nsw i32 %42, 1
  %44 = sext i32 %43 to i64
  %45 = getelementptr inbounds [10000 x i8], [10000 x i8]* %2, i64 0, i64 %44
  %46 = load i8, i8* %45, align 1
  %47 = load i32, i32* %6, align 4
  %48 = sext i32 %47 to i64
  %49 = getelementptr inbounds [10000 x i8], [10000 x i8]* %2, i64 0, i64 %48
  store i8 %46, i8* %49, align 1
  %50 = load i8, i8* %4, align 1
  %51 = load i32, i32* %6, align 4
  %52 = add nsw i32 %51, 1
  %53 = sext i32 %52 to i64
  %54 = getelementptr inbounds [10000 x i8], [10000 x i8]* %2, i64 0, i64 %53
  store i8 %50, i8* %54, align 1
  br label %55

55:                                               ; preds = %37, %24
  br label %56

56:                                               ; preds = %55
  %57 = load i32, i32* %6, align 4
  %58 = add nsw i32 %57, 1
  store i32 %58, i32* %6, align 4
  br label %20

59:                                               ; preds = %20
  br label %60

60:                                               ; preds = %59
  %61 = load i32, i32* %5, align 4
  %62 = add nsw i32 %61, -1
  store i32 %62, i32* %5, align 4
  br label %16

63:                                               ; preds = %16
  %64 = getelementptr inbounds [10000 x i8], [10000 x i8]* %3, i64 0, i64 0
  %65 = call i64 @strlen(i8* %64) #3
  %66 = sub i64 %65, 1
  %67 = trunc i64 %66 to i32
  store i32 %67, i32* %7, align 4
  br label %68

68:                                               ; preds = %112, %63
  %69 = load i32, i32* %7, align 4
  %70 = icmp sge i32 %69, 0
  br i1 %70, label %71, label %115

71:                                               ; preds = %68
  store i32 0, i32* %8, align 4
  br label %72

72:                                               ; preds = %108, %71
  %73 = load i32, i32* %8, align 4
  %74 = load i32, i32* %7, align 4
  %75 = icmp slt i32 %73, %74
  br i1 %75, label %76, label %111

76:                                               ; preds = %72
  %77 = load i32, i32* %8, align 4
  %78 = sext i32 %77 to i64
  %79 = getelementptr inbounds [10000 x i8], [10000 x i8]* %3, i64 0, i64 %78
  %80 = load i8, i8* %79, align 1
  %81 = sext i8 %80 to i32
  %82 = load i32, i32* %8, align 4
  %83 = add nsw i32 %82, 1
  %84 = sext i32 %83 to i64
  %85 = getelementptr inbounds [10000 x i8], [10000 x i8]* %3, i64 0, i64 %84
  %86 = load i8, i8* %85, align 1
  %87 = sext i8 %86 to i32
  %88 = icmp sgt i32 %81, %87
  br i1 %88, label %89, label %107

89:                                               ; preds = %76
  %90 = load i32, i32* %8, align 4
  %91 = sext i32 %90 to i64
  %92 = getelementptr inbounds [10000 x i8], [10000 x i8]* %3, i64 0, i64 %91
  %93 = load i8, i8* %92, align 1
  store i8 %93, i8* %4, align 1
  %94 = load i32, i32* %8, align 4
  %95 = add nsw i32 %94, 1
  %96 = sext i32 %95 to i64
  %97 = getelementptr inbounds [10000 x i8], [10000 x i8]* %3, i64 0, i64 %96
  %98 = load i8, i8* %97, align 1
  %99 = load i32, i32* %8, align 4
  %100 = sext i32 %99 to i64
  %101 = getelementptr inbounds [10000 x i8], [10000 x i8]* %3, i64 0, i64 %100
  store i8 %98, i8* %101, align 1
  %102 = load i8, i8* %4, align 1
  %103 = load i32, i32* %8, align 4
  %104 = add nsw i32 %103, 1
  %105 = sext i32 %104 to i64
  %106 = getelementptr inbounds [10000 x i8], [10000 x i8]* %3, i64 0, i64 %105
  store i8 %102, i8* %106, align 1
  br label %107

107:                                              ; preds = %89, %76
  br label %108

108:                                              ; preds = %107
  %109 = load i32, i32* %8, align 4
  %110 = add nsw i32 %109, 1
  store i32 %110, i32* %8, align 4
  br label %72

111:                                              ; preds = %72
  br label %112

112:                                              ; preds = %111
  %113 = load i32, i32* %7, align 4
  %114 = add nsw i32 %113, -1
  store i32 %114, i32* %7, align 4
  br label %68

115:                                              ; preds = %68
  %116 = getelementptr inbounds [10000 x i8], [10000 x i8]* %2, i64 0, i64 0
  %117 = getelementptr inbounds [10000 x i8], [10000 x i8]* %3, i64 0, i64 0
  %118 = call i32 @strcmp(i8* %116, i8* %117) #3
  %119 = icmp eq i32 %118, 0
  br i1 %119, label %120, label %122

120:                                              ; preds = %115
  %121 = call i32 (i8*, ...) @printf(i8* getelementptr inbounds ([4 x i8], [4 x i8]* @.str.1, i64 0, i64 0))
  br label %124

122:                                              ; preds = %115
  %123 = call i32 (i8*, ...) @printf(i8* getelementptr inbounds ([3 x i8], [3 x i8]* @.str.2, i64 0, i64 0))
  br label %124

124:                                              ; preds = %122, %120
  %125 = load i32, i32* %1, align 4
  ret i32 %125
}

declare dso_local i32 @__isoc99_scanf(i8*, ...) #1

; Function Attrs: nounwind readonly
declare dso_local i64 @strlen(i8*) #2

; Function Attrs: nounwind readonly
declare dso_local i32 @strcmp(i8*, i8*) #2

declare dso_local i32 @printf(i8*, ...) #1


!llvm.module.flags = !{!0}
!llvm.ident = !{!1}

!0 = !{i32 1, !"wchar_size", i32 4}
!1 = !{!"clang version 10.0.0-4ubuntu1 "}
